target datalayout = "e-m:e-p270:32:32-p271:32:32-p272:64:64-i64:64-i128:128-f80:128-n8:16:32:64-S128"
target triple = "x86_64-pc-linux-gnu"

%struct._address = type { i32, i32, ptr, ptr }
%struct._packet_info = type { ptr, ptr, i32, i32, %struct.nstime_t, %struct.nstime_t, %struct.nstime_t, i8, ptr, ptr, ptr, ptr, %struct._address, %struct._address, %struct._address, %struct._address, %struct._address, %struct._address, i32, ptr, i8, [3 x i8], %struct.anon, i32, i32, i32, i32, ptr, i8, ptr, ptr, i16, i16, i32, i32, i16, i32, i32, ptr, ptr, ptr, i8, i8, i16, i16, i16, i32, i16, i16, ptr, ptr, ptr, ptr, ptr, i32, i32 }
%struct.nstime_t = type { i64, i32 }
%struct.anon = type { i8, [3 x i8] }

@.str.7728 = private unnamed_addr constant [3 x i8] c"%d\00", align 1
@.str.7729 = private unnamed_addr constant [12 x i8] c", \CF\86%d%d:%d\00", align 1
@.str.7730 = private unnamed_addr constant [12 x i8] c", \CF\88%d%d:%d\00", align 1

; Function Attrs: null_pointer_is_valid sspstrong uwtable
define internal zeroext i16 @he_get_bits(ptr noundef %0, i32 noundef %1, i32 noundef %2) #1 {
  %4 = alloca ptr, align 8
  %5 = alloca i32, align 4
  %6 = alloca i32, align 4
  %7 = alloca i32, align 4
  %8 = alloca i32, align 4
  %9 = alloca i32, align 4
  %10 = alloca i32, align 4
  %11 = alloca i32, align 4
  store ptr %0, ptr %4, align 8
  store i32 %1, ptr %5, align 4
  store i32 %2, ptr %6, align 4
  call void @llvm.lifetime.start.p0(i64 4, ptr %7) #19
  call void @llvm.lifetime.start.p0(i64 4, ptr %8) #19
  %12 = load i32, ptr %5, align 4
  %13 = sdiv i32 %12, 8
  store i32 %13, ptr %8, align 4
  call void @llvm.lifetime.start.p0(i64 4, ptr %9) #19
  %14 = load i32, ptr %5, align 4
  %15 = srem i32 %14, 8
  store i32 %15, ptr %9, align 4
  call void @llvm.lifetime.start.p0(i64 4, ptr %10) #19
  %16 = load i32, ptr %6, align 4
  %17 = shl i32 1, %16
  %18 = sub i32 %17, 1
  store i32 %18, ptr %10, align 4
  call void @llvm.lifetime.start.p0(i64 4, ptr %11) #19
  %19 = load ptr, ptr %4, align 8
  %20 = load i32, ptr %8, align 4
  %21 = call i32 @tvb_reported_length_remaining(ptr noundef %19, i32 noundef %20)
  store i32 %21, ptr %11, align 4
  %22 = load i32, ptr %11, align 4
  %23 = icmp sge i32 %22, 3
  br i1 %23, label %24, label %28

24:                                               ; preds = %3
  %25 = load ptr, ptr %4, align 8
  %26 = load i32, ptr %8, align 4
  %27 = call i32 @tvb_get_letoh24(ptr noundef %25, i32 noundef %26)
  store i32 %27, ptr %7, align 4
  br label %42

28:                                               ; preds = %3
  %29 = load i32, ptr %11, align 4
  %30 = icmp eq i32 %29, 2
  br i1 %30, label %31, label %36

31:                                               ; preds = %28
  %32 = load ptr, ptr %4, align 8
  %33 = load i32, ptr %8, align 4
  %34 = call zeroext i16 @tvb_get_letohs(ptr noundef %32, i32 noundef %33)
  %35 = zext i16 %34 to i32
  store i32 %35, ptr %7, align 4
  br label %41

36:                                               ; preds = %28
  %37 = load ptr, ptr %4, align 8
  %38 = load i32, ptr %8, align 4
  %39 = call zeroext i8 @tvb_get_uint8(ptr noundef %37, i32 noundef %38)
  %40 = zext i8 %39 to i32
  store i32 %40, ptr %7, align 4
  br label %41

41:                                               ; preds = %36, %31
  br label %42

42:                                               ; preds = %41, %24
  %43 = load i32, ptr %7, align 4
  %44 = load i32, ptr %9, align 4
  %45 = lshr i32 %43, %44
  store i32 %45, ptr %7, align 4
  %46 = load i32, ptr %7, align 4
  %47 = load i32, ptr %10, align 4
  %48 = and i32 %46, %47
  %49 = trunc i32 %48 to i16
  call void @llvm.lifetime.end.p0(i64 4, ptr %11) #19
  call void @llvm.lifetime.end.p0(i64 4, ptr %10) #19
  call void @llvm.lifetime.end.p0(i64 4, ptr %9) #19
  call void @llvm.lifetime.end.p0(i64 4, ptr %8) #19
  call void @llvm.lifetime.end.p0(i64 4, ptr %7) #19
  ret i16 %49
}

; Function Attrs: null_pointer_is_valid sspstrong uwtable
define internal i32 @dissect_he_feedback_matrix(ptr noundef %0, ptr noundef %1, ptr noundef %2, i32 noundef %3, i32 noundef %4, i32 noundef %5, i32 noundef %6, i32 noundef %7, i32 noundef %8, i32 noundef %9, i32 noundef %10) #1 {
  %12 = alloca ptr, align 8
  %13 = alloca ptr, align 8
  %14 = alloca ptr, align 8
  %15 = alloca i32, align 4
  %16 = alloca i32, align 4
  %17 = alloca i32, align 4
  %18 = alloca i32, align 4
  %19 = alloca i32, align 4
  %20 = alloca i32, align 4
  %21 = alloca i32, align 4
  %22 = alloca i32, align 4
  %23 = alloca i32, align 4
  %24 = alloca i32, align 4
  %25 = alloca i32, align 4
  %26 = alloca i32, align 4
  %27 = alloca ptr, align 8
  %28 = alloca i32, align 4
  %29 = alloca i32, align 4
  store ptr %0, ptr %12, align 8
  store ptr %1, ptr %13, align 8
  store ptr %2, ptr %14, align 8
  store i32 %3, ptr %15, align 4
  store i32 %4, ptr %16, align 4
  store i32 %5, ptr %17, align 4
  store i32 %6, ptr %18, align 4
  store i32 %7, ptr %19, align 4
  store i32 %8, ptr %20, align 4
  store i32 %9, ptr %21, align 4
  store i32 %10, ptr %22, align 4
  call void @llvm.lifetime.start.p0(i64 4, ptr %23) #19
  call void @llvm.lifetime.start.p0(i64 4, ptr %24) #19
  call void @llvm.lifetime.start.p0(i64 4, ptr %25) #19
  %30 = load i32, ptr %16, align 4
  store i32 %30, ptr %25, align 4
  call void @llvm.lifetime.start.p0(i64 4, ptr %26) #19
  %31 = load i32, ptr %15, align 4
  store i32 %31, ptr %26, align 4
  call void @llvm.lifetime.start.p0(i64 8, ptr %27) #19
  %32 = load ptr, ptr %14, align 8
  %33 = getelementptr inbounds nuw %struct._packet_info, ptr %32, i32 0, i32 51
  %34 = load ptr, ptr %33, align 8
  %35 = call noalias ptr @wmem_strbuf_new(ptr noundef %34, ptr noundef null)
  store ptr %35, ptr %27, align 8
  %36 = load i32, ptr %19, align 4
  %37 = load i32, ptr %18, align 4
  %38 = icmp eq i32 %36, %37
  br i1 %38, label %39, label %42

39:                                               ; preds = %11
  %40 = load i32, ptr %19, align 4
  %41 = sub i32 %40, 1
  store i32 %41, ptr %19, align 4
  br label %42

42:                                               ; preds = %39, %11
  %43 = load ptr, ptr %27, align 8
  %44 = load i32, ptr %17, align 4
  call void (ptr, ptr, ...) @wmem_strbuf_append_printf(ptr noundef %43, ptr noundef @.str.7728, i32 noundef %44)
  %45 = load i32, ptr %25, align 4
  store i32 %45, ptr %16, align 4
  store i32 1, ptr %24, align 4
  br label %46

46:                                               ; preds = %96, %42
  %47 = load i32, ptr %24, align 4
  %48 = load i32, ptr %19, align 4
  %49 = icmp sle i32 %47, %48
  br i1 %49, label %50, label %99

50:                                               ; preds = %46
  %51 = load i32, ptr %24, align 4
  store i32 %51, ptr %23, align 4
  br label %52

52:                                               ; preds = %69, %50
  %53 = load i32, ptr %23, align 4
  %54 = load i32, ptr %18, align 4
  %55 = icmp slt i32 %53, %54
  br i1 %55, label %56, label %72

56:                                               ; preds = %52
  call void @llvm.lifetime.start.p0(i64 4, ptr %28) #19
  %57 = load ptr, ptr %13, align 8
  %58 = load i32, ptr %16, align 4
  %59 = load i32, ptr %20, align 4
  %60 = call zeroext i16 @he_get_bits(ptr noundef %57, i32 noundef %58, i32 noundef %59)
  %61 = zext i16 %60 to i32
  store i32 %61, ptr %28, align 4
  %62 = load ptr, ptr %27, align 8
  %63 = load i32, ptr %23, align 4
  %64 = load i32, ptr %24, align 4
  %65 = load i32, ptr %28, align 4
  call void (ptr, ptr, ...) @wmem_strbuf_append_printf(ptr noundef %62, ptr noundef @.str.7729, i32 noundef %63, i32 noundef %64, i32 noundef %65)
  %66 = load i32, ptr %20, align 4
  %67 = load i32, ptr %16, align 4
  %68 = add i32 %67, %66
  store i32 %68, ptr %16, align 4
  call void @llvm.lifetime.end.p0(i64 4, ptr %28) #19
  br label %69

69:                                               ; preds = %56
  %70 = load i32, ptr %23, align 4
  %71 = add i32 %70, 1
  store i32 %71, ptr %23, align 4
  br label %52, !llvm.loop !118

72:                                               ; preds = %52
  %73 = load i32, ptr %24, align 4
  %74 = add i32 %73, 1
  store i32 %74, ptr %23, align 4
  br label %75

75:                                               ; preds = %92, %72
  %76 = load i32, ptr %23, align 4
  %77 = load i32, ptr %18, align 4
  %78 = icmp sle i32 %76, %77
  br i1 %78, label %79, label %95

79:                                               ; preds = %75
  call void @llvm.lifetime.start.p0(i64 4, ptr %29) #19
  %80 = load ptr, ptr %13, align 8
  %81 = load i32, ptr %16, align 4
  %82 = load i32, ptr %21, align 4
  %83 = call zeroext i16 @he_get_bits(ptr noundef %80, i32 noundef %81, i32 noundef %82)
  %84 = zext i16 %83 to i32
  store i32 %84, ptr %29, align 4
  %85 = load ptr, ptr %27, align 8
  %86 = load i32, ptr %23, align 4
  %87 = load i32, ptr %24, align 4
  %88 = load i32, ptr %29, align 4
  call void (ptr, ptr, ...) @wmem_strbuf_append_printf(ptr noundef %85, ptr noundef @.str.7730, i32 noundef %86, i32 noundef %87, i32 noundef %88)
  %89 = load i32, ptr %21, align 4
  %90 = load i32, ptr %16, align 4
  %91 = add i32 %90, %89
  store i32 %91, ptr %16, align 4
  call void @llvm.lifetime.end.p0(i64 4, ptr %29) #19
  br label %92

92:                                               ; preds = %79
  %93 = load i32, ptr %23, align 4
  %94 = add i32 %93, 1
  store i32 %94, ptr %23, align 4
  br label %75, !llvm.loop !119

95:                                               ; preds = %75
  br label %96

96:                                               ; preds = %95
  %97 = load i32, ptr %24, align 4
  %98 = add i32 %97, 1
  store i32 %98, ptr %24, align 4
  br label %46, !llvm.loop !120

99:                                               ; preds = %46
  %100 = load ptr, ptr %12, align 8
  %101 = load i32, ptr %22, align 4
  %102 = load ptr, ptr %13, align 8
  %103 = load i32, ptr %15, align 4
  %104 = load i32, ptr %25, align 4
  %105 = add i32 %104, 7
  %106 = sdiv i32 %105, 8
  %107 = load i32, ptr %26, align 4
  %108 = sub i32 %106, %107
  %109 = load ptr, ptr %27, align 8
  %110 = call ptr @wmem_strbuf_get_str(ptr noundef %109)
  %111 = call ptr @proto_tree_add_string(ptr noundef %100, i32 noundef %101, ptr noundef %102, i32 noundef %103, i32 noundef %108, ptr noundef %110)
  %112 = load i32, ptr %16, align 4
  call void @llvm.lifetime.end.p0(i64 8, ptr %27) #19
  call void @llvm.lifetime.end.p0(i64 4, ptr %26) #19
  call void @llvm.lifetime.end.p0(i64 4, ptr %25) #19
  call void @llvm.lifetime.end.p0(i64 4, ptr %24) #19
  call void @llvm.lifetime.end.p0(i64 4, ptr %23) #19
  ret i32 %112
}