; Function Attrs: null_pointer_is_valid sspstrong uwtable
define internal fastcc i32 @dissect_he_feedback_matrix(ptr noundef %0, ptr noundef %1, ptr %.408.val, i32 noundef %2, i32 noundef %3, i32 noundef %4, i32 noundef range(i32 1, 17) %5, i32 noundef range(i32 1, 17) %6, i32 noundef range(i32 0, 10) %7, i32 noundef range(i32 0, 10) %8, i32 noundef %9) unnamed_addr #2 {
  %11 = tail call noalias ptr @wmem_strbuf_new(ptr noundef %.408.val, ptr noundef null)
  %12 = icmp eq i32 %6, %5
  %13 = sext i1 %12 to i32
  %spec.select = add nsw i32 %6, %13
  tail call void (ptr, ptr, ...) @wmem_strbuf_append_printf(ptr noundef %11, ptr noundef nonnull @.str.7728, i32 noundef %4)
  %.not9 = icmp eq i32 %spec.select, 0
  br i1 %.not9, label %._crit_edge12, label %.preheader.lr.ph

.preheader.lr.ph:                                 ; preds = %10
  %notmask.i = shl nsw i32 -1, %7
  %14 = xor i32 %notmask.i, -1
  %notmask.i54 = shl nsw i32 -1, %8
  %15 = xor i32 %notmask.i54, -1
  br label %.preheader

.loopexit:                                        ; preds = %he_get_bits.exit55, %._crit_edge.thread
  %16 = phi i32 [ %18, %._crit_edge.thread ], [ %37, %he_get_bits.exit55 ]
  %.2.lcssa = phi i32 [ %.011, %._crit_edge.thread ], [ %54, %he_get_bits.exit55 ]
  %exitcond16.not = icmp eq i32 %.04810, %spec.select
  br i1 %exitcond16.not, label %._crit_edge12, label %.preheader, !llvm.loop !198

.preheader:                                       ; preds = %.preheader.lr.ph, %.loopexit
  %.011 = phi i32 [ %3, %.preheader.lr.ph ], [ %.2.lcssa, %.loopexit ]
  %.04810 = phi i32 [ 1, %.preheader.lr.ph ], [ %16, %.loopexit ]
  %17 = icmp samesign ult i32 %.04810, %5
  br i1 %17, label %.lr.ph, label %._crit_edge.thread

._crit_edge.thread:                               ; preds = %.preheader
  %18 = add nuw nsw i32 %.04810, 1
  br label %.loopexit

.lr.ph:                                           ; preds = %.preheader, %he_get_bits.exit
  %.12 = phi i32 [ %35, %he_get_bits.exit ], [ %.011, %.preheader ]
  %.0461 = phi i32 [ %36, %he_get_bits.exit ], [ %.04810, %.preheader ]
  %19 = sdiv i32 %.12, 8
  %20 = tail call i32 @tvb_reported_length_remaining(ptr noundef %1, i32 noundef %19)
  %21 = icmp sgt i32 %20, 2
  br i1 %21, label %22, label %24

22:                                               ; preds = %.lr.ph
  %23 = tail call i32 @tvb_get_letoh24(ptr noundef %1, i32 noundef %19)
  br label %he_get_bits.exit

24:                                               ; preds = %.lr.ph
  %25 = icmp eq i32 %20, 2
  br i1 %25, label %26, label %29

26:                                               ; preds = %24
  %27 = tail call zeroext i16 @tvb_get_letohs(ptr noundef %1, i32 noundef %19)
  %28 = zext i16 %27 to i32
  br label %he_get_bits.exit

29:                                               ; preds = %24
  %30 = tail call zeroext i8 @tvb_get_uint8(ptr noundef %1, i32 noundef %19)
  %31 = zext i8 %30 to i32
  br label %he_get_bits.exit

he_get_bits.exit:                                 ; preds = %22, %26, %29
  %.0.i = phi i32 [ %23, %22 ], [ %28, %26 ], [ %31, %29 ]
  %32 = and i32 %.12, 7
  %33 = lshr i32 %.0.i, %32
  %34 = and i32 %33, %14
  tail call void (ptr, ptr, ...) @wmem_strbuf_append_printf(ptr noundef %11, ptr noundef nonnull @.str.7729, i32 noundef %.0461, i32 noundef %.04810, i32 noundef %34)
  %35 = add i32 %.12, %7
  %36 = add nuw nsw i32 %.0461, 1
  %exitcond.not = icmp eq i32 %36, %5
  br i1 %exitcond.not, label %._crit_edge, label %.lr.ph, !llvm.loop !199

._crit_edge:                                      ; preds = %he_get_bits.exit
  %37 = add nuw nsw i32 %.04810, 1
  br label %.lr.ph7

.lr.ph7:                                          ; preds = %._crit_edge, %he_get_bits.exit55
  %.25 = phi i32 [ %54, %he_get_bits.exit55 ], [ %35, %._crit_edge ]
  %.1474 = phi i32 [ %55, %he_get_bits.exit55 ], [ %37, %._crit_edge ]
  %38 = sdiv i32 %.25, 8
  %39 = tail call i32 @tvb_reported_length_remaining(ptr noundef %1, i32 noundef %38)
  %40 = icmp sgt i32 %39, 2
  br i1 %40, label %41, label %43

41:                                               ; preds = %.lr.ph7
  %42 = tail call i32 @tvb_get_letoh24(ptr noundef %1, i32 noundef %38)
  br label %he_get_bits.exit55

43:                                               ; preds = %.lr.ph7
  %44 = icmp eq i32 %39, 2
  br i1 %44, label %45, label %48

45:                                               ; preds = %43
  %46 = tail call zeroext i16 @tvb_get_letohs(ptr noundef %1, i32 noundef %38)
  %47 = zext i16 %46 to i32
  br label %he_get_bits.exit55

48:                                               ; preds = %43
  %49 = tail call zeroext i8 @tvb_get_uint8(ptr noundef %1, i32 noundef %38)
  %50 = zext i8 %49 to i32
  br label %he_get_bits.exit55

he_get_bits.exit55:                               ; preds = %41, %45, %48
  %.0.i53 = phi i32 [ %42, %41 ], [ %47, %45 ], [ %50, %48 ]
  %51 = and i32 %.25, 7
  %52 = lshr i32 %.0.i53, %51
  %53 = and i32 %52, %15
  tail call void (ptr, ptr, ...) @wmem_strbuf_append_printf(ptr noundef %11, ptr noundef nonnull @.str.7730, i32 noundef %.1474, i32 noundef %.04810, i32 noundef %53)
  %54 = add i32 %.25, %8
  %55 = add nuw nsw i32 %.1474, 1
  %exitcond15.not = icmp eq i32 %.1474, %5
  br i1 %exitcond15.not, label %.loopexit, label %.lr.ph7, !llvm.loop !200

._crit_edge12:                                    ; preds = %.loopexit, %10
  %.0.lcssa = phi i32 [ %3, %10 ], [ %.2.lcssa, %.loopexit ]
  %56 = add i32 %3, 7
  %57 = sdiv i32 %56, 8
  %58 = sub i32 %57, %2
  %59 = tail call ptr @wmem_strbuf_get_str(ptr noundef %11)
  %60 = tail call ptr @proto_tree_add_string(ptr noundef %0, i32 noundef %9, ptr noundef %1, i32 noundef %2, i32 noundef %58, ptr noundef %59)
  ret i32 %.0.lcssa
}